; Function Attrs: mustprogress nofree norecurse nosync nounwind memory(readwrite, inaccessiblemem: none) uwtable
define hidden void @_ZNK14PhaseIdealLoop33mark_all_parse_predicates_uselessEv(ptr nocapture noundef nonnull readonly align 8 dereferenceable(237) %0) local_unnamed_addr #7 align 2 {
  %2 = getelementptr inbounds i8, ptr %0, i64 16
  %3 = load ptr, ptr %2, align 8
  %4 = getelementptr inbounds i8, ptr %3, i64 440
  %5 = load i32, ptr %4, align 4
  %6 = icmp sgt i32 %5, 0
  br i1 %6, label %.lr.ph, label %._crit_edge

.lr.ph:                                           ; preds = %1, %.lr.ph
  %indvars.iv = phi i64 [ %indvars.iv.next, %.lr.ph ], [ 0, %1 ]
  %7 = phi ptr [ %13, %.lr.ph ], [ %3, %1 ]
  %8 = getelementptr inbounds i8, ptr %7, i64 448
  %9 = load ptr, ptr %8, align 8
  %10 = getelementptr inbounds ptr, ptr %9, i64 %indvars.iv
  %11 = load ptr, ptr %10, align 8
  %12 = getelementptr inbounds i8, ptr %11, i64 64
  store i8 1, ptr %12, align 8
  %indvars.iv.next = add nuw nsw i64 %indvars.iv, 1
  %13 = load ptr, ptr %2, align 8
  %14 = getelementptr inbounds i8, ptr %13, i64 440
  %15 = load i32, ptr %14, align 4
  %16 = sext i32 %15 to i64
  %17 = icmp slt i64 %indvars.iv.next, %16
  br i1 %17, label %.lr.ph, label %._crit_edge, !llvm.loop !73

._crit_edge:                                      ; preds = %.lr.ph, %1
  ret void
}